target datalayout = "e-m:e-p270:32:32-p271:32:32-p272:64:64-i64:64-i128:128-f80:128-n8:16:32:64-S128"
target triple = "x86_64-pc-linux-gnu"

%struct.Agobj_s = type { %struct.Agtag_s, ptr }
%struct.Agtag_s = type { i32, i64 }
%struct.Agraphinfo_t = type { %struct.Agrec_s, ptr, ptr, %struct.boxf, [4 x %struct.pointf_s], i8, i8, i8, i8, i32, double, double, i16, ptr, ptr, ptr, ptr, i32, ptr, ptr, ptr, ptr, i16, i16, i32, ptr, ptr, ptr, ptr, ptr, i32, ptr, ptr, %struct.nlist_t, ptr, ptr, i32, i32, i8, i8, i32, i32, i32, ptr, ptr, ptr, ptr, i8, i8, i8, i8, i8 }
%struct.Agrec_s = type { ptr, ptr }
%struct.boxf = type { %struct.pointf_s, %struct.pointf_s }
%struct.pointf_s = type { double, double }
%struct.nlist_t = type { ptr, i64 }

@.str.19 = private unnamed_addr constant [13 x i8] c"Agraphinfo_t\00", align 1
@.str.23 = private unnamed_addr constant [16 x i8] c"%lf,%lf,%lf,%lf\00", align 1

; Function Attrs: nounwind uwtable
define internal i32 @chkBB(ptr noundef %0, ptr noundef %1, ptr noundef %2) #0 {
  %4 = alloca i32, align 4
  %5 = alloca ptr, align 8
  %6 = alloca ptr, align 8
  %7 = alloca ptr, align 8
  %8 = alloca ptr, align 8
  %9 = alloca %struct.boxf, align 8
  %10 = alloca [8 x i8], align 1
  %11 = alloca i32, align 4
  store ptr %0, ptr %5, align 8, !tbaa !57
  store ptr %1, ptr %6, align 8, !tbaa !45
  store ptr %2, ptr %7, align 8, !tbaa !44
  call void @llvm.lifetime.start.p0(i64 8, ptr %8) #15
  call void @llvm.lifetime.start.p0(i64 32, ptr %9) #15
  %12 = load ptr, ptr %5, align 8, !tbaa !57
  %13 = load ptr, ptr %6, align 8, !tbaa !45
  %14 = call ptr @agxget(ptr noundef %12, ptr noundef %13)
  store ptr %14, ptr %8, align 8, !tbaa !49
  %15 = load ptr, ptr %8, align 8, !tbaa !49
  %16 = getelementptr inbounds nuw %struct.boxf, ptr %9, i32 0, i32 0
  %17 = getelementptr inbounds nuw %struct.pointf_s, ptr %16, i32 0, i32 0
  %18 = getelementptr inbounds nuw %struct.boxf, ptr %9, i32 0, i32 0
  %19 = getelementptr inbounds nuw %struct.pointf_s, ptr %18, i32 0, i32 1
  %20 = getelementptr inbounds nuw %struct.boxf, ptr %9, i32 0, i32 1
  %21 = getelementptr inbounds nuw %struct.pointf_s, ptr %20, i32 0, i32 0
  %22 = getelementptr inbounds nuw %struct.boxf, ptr %9, i32 0, i32 1
  %23 = getelementptr inbounds nuw %struct.pointf_s, ptr %22, i32 0, i32 1
  %24 = call i32 (ptr, ptr, ...) @__isoc99_sscanf(ptr noundef %15, ptr noundef @.str.23, ptr noundef %17, ptr noundef %19, ptr noundef %21, ptr noundef %23) #15
  %25 = icmp eq i32 %24, 4
  br i1 %25, label %26, label %51

26:                                               ; preds = %3
  %27 = getelementptr inbounds nuw %struct.boxf, ptr %9, i32 0, i32 0
  %28 = getelementptr inbounds nuw %struct.pointf_s, ptr %27, i32 0, i32 1
  %29 = load double, ptr %28, align 8, !tbaa !126
  %30 = getelementptr inbounds nuw %struct.boxf, ptr %9, i32 0, i32 1
  %31 = getelementptr inbounds nuw %struct.pointf_s, ptr %30, i32 0, i32 1
  %32 = load double, ptr %31, align 8, !tbaa !127
  %33 = fcmp ogt double %29, %32
  br i1 %33, label %34, label %49

34:                                               ; preds = %26
  br label %35

35:                                               ; preds = %34
  call void @llvm.lifetime.start.p0(i64 8, ptr %10) #15
  %36 = getelementptr inbounds [8 x i8], ptr %10, i64 0, i64 0
  %37 = getelementptr inbounds nuw %struct.boxf, ptr %9, i32 0, i32 0
  %38 = getelementptr inbounds nuw %struct.pointf_s, ptr %37, i32 0, i32 1
  call void @llvm.memcpy.p0.p0.i64(ptr align 1 %36, ptr align 8 %38, i64 8, i1 false)
  %39 = getelementptr inbounds nuw %struct.boxf, ptr %9, i32 0, i32 1
  %40 = getelementptr inbounds nuw %struct.pointf_s, ptr %39, i32 0, i32 1
  %41 = load double, ptr %40, align 8, !tbaa !127
  %42 = getelementptr inbounds nuw %struct.boxf, ptr %9, i32 0, i32 0
  %43 = getelementptr inbounds nuw %struct.pointf_s, ptr %42, i32 0, i32 1
  store double %41, ptr %43, align 8, !tbaa !126
  %44 = getelementptr inbounds nuw %struct.boxf, ptr %9, i32 0, i32 1
  %45 = getelementptr inbounds nuw %struct.pointf_s, ptr %44, i32 0, i32 1
  %46 = getelementptr inbounds [8 x i8], ptr %10, i64 0, i64 0
  call void @llvm.memcpy.p0.p0.i64(ptr align 8 %45, ptr align 1 %46, i64 8, i1 false)
  call void @llvm.lifetime.end.p0(i64 8, ptr %10) #15
  br label %47

47:                                               ; preds = %35
  br label %48

48:                                               ; preds = %47
  br label %49

49:                                               ; preds = %48, %26
  %50 = load ptr, ptr %7, align 8, !tbaa !44
  call void @llvm.memcpy.p0.p0.i64(ptr align 8 %50, ptr align 8 %9, i64 32, i1 false), !tbaa.struct !73
  store i32 1, ptr %4, align 4
  store i32 1, ptr %11, align 4
  br label %52

51:                                               ; preds = %3
  store i32 0, ptr %4, align 4
  store i32 1, ptr %11, align 4
  br label %52

52:                                               ; preds = %51, %49
  call void @llvm.lifetime.end.p0(i64 32, ptr %9) #15
  call void @llvm.lifetime.end.p0(i64 8, ptr %8) #15
  %53 = load i32, ptr %4, align 4
  ret i32 %53
}

; Function Attrs: nounwind uwtable
define internal void @dfs(ptr noundef %0, ptr noundef %1, ptr noundef %2, ptr noundef %3) #0 {
  %5 = alloca ptr, align 8
  %6 = alloca ptr, align 8
  %7 = alloca ptr, align 8
  %8 = alloca ptr, align 8
  %9 = alloca %struct.boxf, align 8
  %10 = alloca ptr, align 8
  store ptr %0, ptr %5, align 8, !tbaa !57
  store ptr %1, ptr %6, align 8, !tbaa !57
  store ptr %2, ptr %7, align 8, !tbaa !45
  store ptr %3, ptr %8, align 8, !tbaa !45
  call void @llvm.lifetime.start.p0(i64 32, ptr %9) #15
  %11 = load ptr, ptr %5, align 8, !tbaa !57
  %12 = call zeroext i1 @is_a_cluster(ptr noundef %11)
  br i1 %12, label %13, label %30

13:                                               ; preds = %4
  %14 = load ptr, ptr %5, align 8, !tbaa !57
  %15 = load ptr, ptr %8, align 8, !tbaa !45
  %16 = call i32 @chkBB(ptr noundef %14, ptr noundef %15, ptr noundef %9)
  %17 = icmp ne i32 %16, 0
  br i1 %17, label %18, label %30

18:                                               ; preds = %13
  %19 = load ptr, ptr %5, align 8, !tbaa !57
  %20 = call ptr @agbindrec(ptr noundef %19, ptr noundef @.str.19, i32 noundef 400, i32 noundef 1)
  %21 = load ptr, ptr %5, align 8, !tbaa !57
  %22 = getelementptr inbounds nuw %struct.Agobj_s, ptr %21, i32 0, i32 1
  %23 = load ptr, ptr %22, align 8, !tbaa !8
  %24 = getelementptr inbounds nuw %struct.Agraphinfo_t, ptr %23, i32 0, i32 3
  call void @llvm.memcpy.p0.p0.i64(ptr align 8 %24, ptr align 8 %9, i64 32, i1 false), !tbaa.struct !73
  %25 = load ptr, ptr %6, align 8, !tbaa !57
  %26 = load ptr, ptr %5, align 8, !tbaa !57
  call void @add_cluster(ptr noundef %25, ptr noundef %26)
  %27 = load ptr, ptr %5, align 8, !tbaa !57
  %28 = load ptr, ptr %7, align 8, !tbaa !45
  %29 = load ptr, ptr %8, align 8, !tbaa !45
  call void @nop_init_graphs(ptr noundef %27, ptr noundef %28, ptr noundef %29)
  br label %45

30:                                               ; preds = %13, %4
  call void @llvm.lifetime.start.p0(i64 8, ptr %10) #15
  %31 = load ptr, ptr %5, align 8, !tbaa !57
  %32 = call ptr @agfstsubg(ptr noundef %31)
  store ptr %32, ptr %10, align 8, !tbaa !57
  br label %33

33:                                               ; preds = %41, %30
  %34 = load ptr, ptr %10, align 8, !tbaa !57
  %35 = icmp ne ptr %34, null
  br i1 %35, label %36, label %44

36:                                               ; preds = %33
  %37 = load ptr, ptr %10, align 8, !tbaa !57
  %38 = load ptr, ptr %6, align 8, !tbaa !57
  %39 = load ptr, ptr %7, align 8, !tbaa !45
  %40 = load ptr, ptr %8, align 8, !tbaa !45
  call void @dfs(ptr noundef %37, ptr noundef %38, ptr noundef %39, ptr noundef %40)
  br label %41

41:                                               ; preds = %36
  %42 = load ptr, ptr %10, align 8, !tbaa !57
  %43 = call ptr @agnxtsubg(ptr noundef %42)
  store ptr %43, ptr %10, align 8, !tbaa !57
  br label %33, !llvm.loop !125

44:                                               ; preds = %33
  call void @llvm.lifetime.end.p0(i64 8, ptr %10) #15
  br label %45

45:                                               ; preds = %44, %18
  call void @llvm.lifetime.end.p0(i64 32, ptr %9) #15
  ret void
}