; Function Attrs: nounwind uwtable
define internal fastcc void @dfs(ptr noundef nonnull %0, ptr noundef readonly captures(none) %1, ptr noundef %2, ptr noundef nonnull %3) unnamed_addr #0 {
  %5 = alloca %struct.boxf, align 8
  %6 = alloca %struct.boxf, align 8
  call void @llvm.lifetime.start.p0(i64 32, ptr nonnull %6)
  %7 = tail call zeroext i1 @is_a_cluster(ptr noundef nonnull %0) #22
  br i1 %7, label %8, label %25

8:                                                ; preds = %4
  call void @llvm.lifetime.start.p0(i64 32, ptr nonnull %5) #22
  %9 = tail call ptr @agxget(ptr noundef nonnull %0, ptr noundef nonnull %3) #22
  %10 = getelementptr inbounds nuw i8, ptr %5, i64 8
  %11 = getelementptr inbounds nuw i8, ptr %5, i64 16
  %12 = getelementptr inbounds nuw i8, ptr %5, i64 24
  %13 = call i32 (ptr, ptr, ...) @__isoc99_sscanf(ptr noundef %9, ptr noundef nonnull @.str.23, ptr noundef nonnull %5, ptr noundef nonnull %10, ptr noundef nonnull %11, ptr noundef nonnull %12) #22
  %14 = icmp eq i32 %13, 4
  br i1 %14, label %15, label %chkBB.exit.thread

chkBB.exit.thread:                                ; preds = %8
  call void @llvm.lifetime.end.p0(i64 32, ptr nonnull %5) #22
  br label %25

15:                                               ; preds = %8
  %16 = load double, ptr %10, align 8
  %17 = load double, ptr %12, align 8, !tbaa !172
  %18 = fcmp ogt double %16, %17
  br i1 %18, label %19, label %20

19:                                               ; preds = %15
  store double %17, ptr %10, align 8, !tbaa !173
  store double %16, ptr %12, align 8
  br label %20

20:                                               ; preds = %19, %15
  call void @llvm.memcpy.p0.p0.i64(ptr noundef nonnull align 8 dereferenceable(32) %6, ptr noundef nonnull align 8 dereferenceable(32) %5, i64 32, i1 false), !tbaa.struct !95
  call void @llvm.lifetime.end.p0(i64 32, ptr nonnull %5) #22
  %21 = call ptr @agbindrec(ptr noundef nonnull %0, ptr noundef nonnull @.str.19, i32 noundef 400, i32 noundef 1) #22
  %22 = getelementptr inbounds nuw i8, ptr %0, i64 16
  %23 = load ptr, ptr %22, align 8, !tbaa !3
  %24 = getelementptr inbounds nuw i8, ptr %23, i64 32
  call void @llvm.memcpy.p0.p0.i64(ptr noundef nonnull align 8 dereferenceable(32) %24, ptr noundef nonnull align 8 dereferenceable(32) %6, i64 32, i1 false), !tbaa.struct !95
  call fastcc void @add_cluster(ptr noundef %1, ptr noundef %0)
  call fastcc void @nop_init_graphs(ptr noundef nonnull %0, ptr noundef %2, ptr noundef nonnull %3)
  br label %.loopexit

25:                                               ; preds = %chkBB.exit.thread, %4
  %26 = call ptr @agfstsubg(ptr noundef nonnull %0) #22
  %.not1720 = icmp eq ptr %26, null
  br i1 %.not1720, label %.loopexit, label %.lr.ph

.lr.ph:                                           ; preds = %25, %.lr.ph
  %.021 = phi ptr [ %27, %.lr.ph ], [ %26, %25 ]
  call fastcc void @dfs(ptr noundef %.021, ptr noundef %1, ptr noundef %2, ptr noundef %3)
  %27 = call ptr @agnxtsubg(ptr noundef nonnull %.021) #22
  %.not17 = icmp eq ptr %27, null
  br i1 %.not17, label %.loopexit, label %.lr.ph, !llvm.loop !174

.loopexit:                                        ; preds = %.lr.ph, %25, %20
  call void @llvm.lifetime.end.p0(i64 32, ptr nonnull %6)
  ret void
}